target datalayout = "e-m:e-p270:32:32-p271:32:32-p272:64:64-i64:64-i128:128-f80:128-n8:16:32:64-S128"
target triple = "x86_64-pc-linux-gnu"

%class.app = type { %class.expr, ptr, i32, %struct.app_flags, [0 x ptr] }
%class.expr = type { %class.ast }
%class.ast = type { i32, i32, i32, i32 }
%struct.app_flags = type <{ i16, i8, i8 }>
%class.buffer.57 = type { ptr, i32, i32, [128 x i8] }
%class.ptr_buffer.56 = type { %class.buffer.57 }

; Function Attrs: mustprogress nounwind uwtable
define linkonce_odr hidden void @_ZN6bufferIP3varLb0ELj16EEC2Ev(ptr noundef nonnull align 8 dereferenceable(144) %0) unnamed_addr #7 comdat align 2 {
  %2 = alloca ptr, align 8
  store ptr %0, ptr %2, align 8, !tbaa !216
  %3 = load ptr, ptr %2, align 8
  %4 = getelementptr inbounds nuw %class.buffer.57, ptr %3, i32 0, i32 0
  %5 = getelementptr inbounds nuw %class.buffer.57, ptr %3, i32 0, i32 3
  %6 = getelementptr inbounds [128 x i8], ptr %5, i64 0, i64 0
  store ptr %6, ptr %4, align 8, !tbaa !221
  %7 = getelementptr inbounds nuw %class.buffer.57, ptr %3, i32 0, i32 1
  store i32 0, ptr %7, align 8, !tbaa !218
  %8 = getelementptr inbounds nuw %class.buffer.57, ptr %3, i32 0, i32 2
  store i32 16, ptr %8, align 4, !tbaa !220
  ret void
}

; Function Attrs: mustprogress nounwind uwtable
define linkonce_odr hidden noundef ptr @_ZNK3app8get_declEv(ptr noundef nonnull align 8 dereferenceable(32) %0) #7 comdat align 2 {
  %2 = alloca ptr, align 8
  store ptr %0, ptr %2, align 8, !tbaa !84
  %3 = load ptr, ptr %2, align 8
  %4 = getelementptr inbounds nuw %class.app, ptr %3, i32 0, i32 1
  %5 = load ptr, ptr %4, align 8, !tbaa !86
  ret ptr %5
}

; Function Attrs: inlinehint mustprogress nounwind uwtable
define linkonce_odr hidden noundef ptr @_Z6to_appP3ast(ptr noundef %0) #8 comdat {
  %2 = alloca ptr, align 8
  store ptr %0, ptr %2, align 8, !tbaa !82
  %3 = load ptr, ptr %2, align 8, !tbaa !82
  ret ptr %3
}

; Function Attrs: inlinehint mustprogress nounwind uwtable
define linkonce_odr hidden void @_ZN10ptr_bufferI3varLj16EEC2Ev(ptr noundef nonnull align 8 dereferenceable(144) %0) unnamed_addr #8 comdat align 2 {
  %2 = alloca ptr, align 8
  store ptr %0, ptr %2, align 8, !tbaa !214
  %3 = load ptr, ptr %2, align 8
  call void @_ZN6bufferIP3varLb0ELj16EEC2Ev(ptr noundef nonnull align 8 dereferenceable(144) %3) #3
  ret void
}

; Function Attrs: mustprogress uwtable
define hidden noundef zeroext i1 @_Z12is_hint_atomP4exprS0_(ptr noundef %0, ptr noundef %1) #4 personality ptr @__gxx_personality_v0 {
  %3 = alloca i1, align 1
  %4 = alloca ptr, align 8
  %5 = alloca ptr, align 8
  %6 = alloca %class.ptr_buffer.56, align 8
  %7 = alloca ptr, align 8
  %8 = alloca i32, align 4
  %9 = alloca i32, align 4
  store ptr %0, ptr %4, align 8, !tbaa !50
  store ptr %1, ptr %5, align 8, !tbaa !50
  call void @llvm.lifetime.start.p0(i64 144, ptr %6) #3
  call void @_ZN10ptr_bufferI3varLj16EEC2Ev(ptr noundef nonnull align 8 dereferenceable(144) %6) #3
  %10 = load ptr, ptr %4, align 8, !tbaa !50
  %11 = invoke noundef zeroext i1 @_Z12is_hint_headP4exprR10ptr_bufferI3varLj16EE(ptr noundef %10, ptr noundef nonnull align 8 dereferenceable(144) %6)
          to label %12 unwind label %14

12:                                               ; preds = %2
  br i1 %11, label %18, label %13

13:                                               ; preds = %12
  store i1 false, ptr %3, align 1
  store i32 1, ptr %9, align 4
  br label %33

14:                                               ; preds = %27, %23, %21, %18, %2
  %15 = landingpad { ptr, i32 }
          cleanup
  %16 = extractvalue { ptr, i32 } %15, 0
  store ptr %16, ptr %7, align 8
  %17 = extractvalue { ptr, i32 } %15, 1
  store i32 %17, ptr %8, align 4
  call void @_ZN6bufferIP3varLb0ELj16EED2Ev(ptr noundef nonnull align 8 dereferenceable(144) %6) #3
  call void @llvm.lifetime.end.p0(i64 144, ptr %6) #3
  br label %35

18:                                               ; preds = %12
  %19 = load ptr, ptr %4, align 8, !tbaa !50
  %20 = invoke noundef ptr @_Z6to_appP3ast(ptr noundef %19)
          to label %21 unwind label %14

21:                                               ; preds = %18
  %22 = invoke noundef ptr @_ZNK3app8get_declEv(ptr noundef nonnull align 8 dereferenceable(32) %20)
          to label %23 unwind label %14

23:                                               ; preds = %21
  %24 = load ptr, ptr %5, align 8, !tbaa !50
  %25 = invoke noundef zeroext i1 @_Z6occursP9func_declP4expr(ptr noundef %22, ptr noundef %24)
          to label %26 unwind label %14

26:                                               ; preds = %23
  br i1 %25, label %31, label %27

27:                                               ; preds = %26
  %28 = load ptr, ptr %5, align 8, !tbaa !50
  %29 = invoke noundef zeroext i1 @_Z17vars_of_is_subsetP4exprRK10ptr_bufferI3varLj16EE(ptr noundef %28, ptr noundef nonnull align 8 dereferenceable(144) %6)
          to label %30 unwind label %14

30:                                               ; preds = %27
  br label %31

31:                                               ; preds = %30, %26
  %32 = phi i1 [ false, %26 ], [ %29, %30 ]
  store i1 %32, ptr %3, align 1
  store i32 1, ptr %9, align 4
  br label %33

33:                                               ; preds = %31, %13
  call void @_ZN6bufferIP3varLb0ELj16EED2Ev(ptr noundef nonnull align 8 dereferenceable(144) %6) #3
  call void @llvm.lifetime.end.p0(i64 144, ptr %6) #3
  %34 = load i1, ptr %3, align 1
  ret i1 %34

35:                                               ; preds = %14
  %36 = load ptr, ptr %7, align 8
  %37 = load i32, ptr %8, align 4
  %38 = insertvalue { ptr, i32 } poison, ptr %36, 0
  %39 = insertvalue { ptr, i32 } %38, i32 %37, 1
  resume { ptr, i32 } %39
}