; Function Attrs: mustprogress uwtable
define hidden noundef zeroext i1 @_Z12is_hint_atomP4exprS0_(ptr noundef captures(address) %0, ptr noundef %1) local_unnamed_addr #3 personality ptr @__gxx_personality_v0 {
  %3 = alloca %class.ptr_buffer.56, align 8
  call void @llvm.lifetime.start.p0(i64 144, ptr nonnull %3) #22
  %4 = getelementptr inbounds nuw i8, ptr %3, i64 16
  store ptr %4, ptr %3, align 8, !tbaa !208
  %5 = getelementptr inbounds nuw i8, ptr %3, i64 8
  store i32 0, ptr %5, align 8, !tbaa !204
  %6 = getelementptr inbounds nuw i8, ptr %3, i64 12
  store i32 16, ptr %6, align 4, !tbaa !207
  %7 = invoke noundef zeroext i1 @_Z12is_hint_headP4exprR10ptr_bufferI3varLj16EE(ptr noundef %0, ptr noundef nonnull align 8 dereferenceable(144) %3)
          to label %8 unwind label %9

8:                                                ; preds = %2
  br i1 %7, label %11, label %18

9:                                                ; preds = %16, %11, %2
  %10 = landingpad { ptr, i32 }
          cleanup
  call void @_ZN6bufferIP3varLb0ELj16EED2Ev(ptr noundef nonnull align 8 dereferenceable(144) %3) #22
  call void @llvm.lifetime.end.p0(i64 144, ptr nonnull %3) #22
  resume { ptr, i32 } %10

11:                                               ; preds = %8
  %12 = getelementptr inbounds nuw i8, ptr %0, i64 16
  %13 = load ptr, ptr %12, align 8, !tbaa !50
  %14 = invoke noundef zeroext i1 @_Z6occursP9func_declP4expr(ptr noundef %13, ptr noundef %1)
          to label %15 unwind label %9

15:                                               ; preds = %11
  br i1 %14, label %18, label %16

16:                                               ; preds = %15
  %17 = invoke noundef zeroext i1 @_Z17vars_of_is_subsetP4exprRK10ptr_bufferI3varLj16EE(ptr noundef %1, ptr noundef nonnull align 8 dereferenceable(144) %3)
          to label %18 unwind label %9

18:                                               ; preds = %15, %16, %8
  %.0 = phi i1 [ false, %8 ], [ false, %15 ], [ %17, %16 ]
  %19 = load ptr, ptr %3, align 8, !tbaa !208
  %.not.i.i.i = icmp eq ptr %19, %4
  %20 = icmp eq ptr %19, null
  %or.cond.i.i.i = or i1 %.not.i.i.i, %20
  br i1 %or.cond.i.i.i, label %_ZN6bufferIP3varLb0ELj16EED2Ev.exit, label %21

21:                                               ; preds = %18
  invoke void @_ZN6memory10deallocateEPv(ptr noundef nonnull %19)
          to label %_ZN6bufferIP3varLb0ELj16EED2Ev.exit unwind label %22

22:                                               ; preds = %21
  %23 = landingpad { ptr, i32 }
          catch ptr null
  %24 = extractvalue { ptr, i32 } %23, 0
  call void @__clang_call_terminate(ptr %24) #23
  unreachable

_ZN6bufferIP3varLb0ELj16EED2Ev.exit:              ; preds = %18, %21
  call void @llvm.lifetime.end.p0(i64 144, ptr nonnull %3) #22
  ret i1 %.0
}